(lp1
(lp2
Vair
p3
aF1
aI00
aF0
aF0
aVblue
p4
aI00
a(lp5
F0
aF0
aF0
aaF0
aF0
aF0
aF0
aF0
aF0
aF0
aF0
aV0
aV0
aV0
aV0
aI0
aI00
aF0
aI1
aa(lp6
VPVA_PV19
p7
aF1.5
aI01
aF11.4
aF1.1399999999999999
aVred
p8
aI01
a(lp9
F0
aF0
aF1
aaF1e-99
aF4
aF0.68999999999999995
aF0.76000000000000001
aF2.5
aF2.5
aF35731
aF13200
aVCoumarin334AbsNormgem.txt
p10
aVCoumarin334EmNormgem.txt
p11
aVPV19AbsNorm.txt
p12
aVPV19EmNorm.txt
p13
aI0
aI00
aF0
aI1
aa.